target datalayout = "e-m:e-p270:32:32-p271:32:32-p272:64:64-i64:64-i128:128-f80:128-n8:16:32:64-S128"
target triple = "x86_64-pc-linux-gnu"

%struct._object = type { %union.anon.41, ptr }
%union.anon.41 = type { i64 }
%struct.PyVarObject = type { %struct._object, i64 }
%struct.PyASCIIObject = type { %struct._object, i64, i64, %struct.anon.46 }
%struct.anon.46 = type { i16, i16 }
%struct._typeobject = type { %struct.PyVarObject, ptr, i64, i64, ptr, i64, ptr, ptr, ptr, ptr, ptr, ptr, ptr, ptr, ptr, ptr, ptr, ptr, ptr, i64, ptr, ptr, ptr, ptr, i64, ptr, ptr, ptr, ptr, ptr, ptr, ptr, ptr, ptr, i64, ptr, ptr, ptr, ptr, ptr, ptr, ptr, ptr, ptr, ptr, ptr, i32, ptr, ptr, i8, i16 }

@.str.121 = private unnamed_addr constant [4 x i8] c"str\00", align 1
@.str.254 = private unnamed_addr constant [13 x i8] c"removesuffix\00", align 1
@.str.297 = private unnamed_addr constant [9 x i8] c"argument\00", align 1

; Function Attrs: inlinehint nounwind uwtable
define internal i64 @PyUnicode_GET_LENGTH(ptr noundef %0) #2 {
  %2 = alloca ptr, align 8
  store ptr %0, ptr %2, align 8, !tbaa !4
  %3 = load ptr, ptr %2, align 8, !tbaa !4
  %4 = getelementptr inbounds nuw %struct.PyASCIIObject, ptr %3, i32 0, i32 1
  %5 = load i64, ptr %4, align 8, !tbaa !194
  ret i64 %5
}

; Function Attrs: nounwind uwtable
define internal ptr @unicode_removesuffix_impl(ptr noundef %0, ptr noundef %1) #0 {
  %3 = alloca ptr, align 8
  %4 = alloca ptr, align 8
  %5 = alloca ptr, align 8
  %6 = alloca i32, align 4
  %7 = alloca i32, align 4
  store ptr %0, ptr %4, align 8, !tbaa !4
  store ptr %1, ptr %5, align 8, !tbaa !4
  call void @llvm.lifetime.start.p0(i64 4, ptr %6) #12
  %8 = load ptr, ptr %4, align 8, !tbaa !4
  %9 = load ptr, ptr %5, align 8, !tbaa !4
  %10 = call i32 @tailmatch(ptr noundef %8, ptr noundef %9, i64 noundef 0, i64 noundef 9223372036854775807, i32 noundef 1)
  store i32 %10, ptr %6, align 4, !tbaa !190
  %11 = load i32, ptr %6, align 4, !tbaa !190
  %12 = icmp eq i32 %11, -1
  br i1 %12, label %13, label %14

13:                                               ; preds = %2
  store ptr null, ptr %3, align 8
  store i32 1, ptr %7, align 4
  br label %28

14:                                               ; preds = %2
  %15 = load i32, ptr %6, align 4, !tbaa !190
  %16 = icmp ne i32 %15, 0
  br i1 %16, label %17, label %25

17:                                               ; preds = %14
  %18 = load ptr, ptr %4, align 8, !tbaa !4
  %19 = load ptr, ptr %4, align 8, !tbaa !4
  %20 = call i64 @PyUnicode_GET_LENGTH(ptr noundef %19)
  %21 = load ptr, ptr %5, align 8, !tbaa !4
  %22 = call i64 @PyUnicode_GET_LENGTH(ptr noundef %21)
  %23 = sub i64 %20, %22
  %24 = call ptr @PyUnicode_Substring(ptr noundef %18, i64 noundef 0, i64 noundef %23)
  store ptr %24, ptr %3, align 8
  store i32 1, ptr %7, align 4
  br label %28

25:                                               ; preds = %14
  %26 = load ptr, ptr %4, align 8, !tbaa !4
  %27 = call ptr @unicode_result_unchanged(ptr noundef %26)
  store ptr %27, ptr %3, align 8
  store i32 1, ptr %7, align 4
  br label %28

28:                                               ; preds = %25, %17, %13
  call void @llvm.lifetime.end.p0(i64 4, ptr %6) #12
  %29 = load ptr, ptr %3, align 8
  ret ptr %29
}

; Function Attrs: inlinehint nounwind uwtable
define internal i32 @PyType_HasFeature(ptr noundef %0, i64 noundef %1) #2 {
  %3 = alloca ptr, align 8
  %4 = alloca i64, align 8
  %5 = alloca i64, align 8
  store ptr %0, ptr %3, align 8, !tbaa !196
  store i64 %1, ptr %4, align 8, !tbaa !185
  call void @llvm.lifetime.start.p0(i64 8, ptr %5) #12
  %6 = load ptr, ptr %3, align 8, !tbaa !196
  %7 = getelementptr inbounds nuw %struct._typeobject, ptr %6, i32 0, i32 19
  %8 = load i64, ptr %7, align 8, !tbaa !197
  store i64 %8, ptr %5, align 8, !tbaa !185
  %9 = load i64, ptr %5, align 8, !tbaa !185
  %10 = load i64, ptr %4, align 8, !tbaa !185
  %11 = and i64 %9, %10
  %12 = icmp ne i64 %11, 0
  %13 = zext i1 %12 to i32
  call void @llvm.lifetime.end.p0(i64 8, ptr %5) #12
  ret i32 %13
}

; Function Attrs: inlinehint nounwind uwtable
define internal ptr @_Py_TYPE(ptr noundef %0) #2 {
  %2 = alloca ptr, align 8
  store ptr %0, ptr %2, align 8, !tbaa !4
  %3 = load ptr, ptr %2, align 8, !tbaa !4
  %4 = getelementptr inbounds nuw %struct._object, ptr %3, i32 0, i32 1
  %5 = load ptr, ptr %4, align 8, !tbaa !202
  ret ptr %5
}

; Function Attrs: nounwind uwtable
define internal ptr @unicode_removesuffix(ptr noundef %0, ptr noundef %1) #0 {
  %3 = alloca ptr, align 8
  %4 = alloca ptr, align 8
  %5 = alloca ptr, align 8
  %6 = alloca ptr, align 8
  store ptr %0, ptr %3, align 8, !tbaa !4
  store ptr %1, ptr %4, align 8, !tbaa !4
  call void @llvm.lifetime.start.p0(i64 8, ptr %5) #12
  store ptr null, ptr %5, align 8, !tbaa !4
  call void @llvm.lifetime.start.p0(i64 8, ptr %6) #12
  %7 = load ptr, ptr %4, align 8, !tbaa !4
  %8 = call ptr @_Py_TYPE(ptr noundef %7)
  %9 = call i32 @PyType_HasFeature(ptr noundef %8, i64 noundef 268435456)
  %10 = icmp ne i32 %9, 0
  br i1 %10, label %13, label %11

11:                                               ; preds = %2
  %12 = load ptr, ptr %4, align 8, !tbaa !4
  call void @_PyArg_BadArgument(ptr noundef @.str.254, ptr noundef @.str.297, ptr noundef @.str.121, ptr noundef %12)
  br label %18

13:                                               ; preds = %2
  %14 = load ptr, ptr %4, align 8, !tbaa !4
  store ptr %14, ptr %6, align 8, !tbaa !4
  %15 = load ptr, ptr %3, align 8, !tbaa !4
  %16 = load ptr, ptr %6, align 8, !tbaa !4
  %17 = call ptr @unicode_removesuffix_impl(ptr noundef %15, ptr noundef %16)
  store ptr %17, ptr %5, align 8, !tbaa !4
  br label %18

18:                                               ; preds = %13, %11
  %19 = load ptr, ptr %5, align 8, !tbaa !4
  call void @llvm.lifetime.end.p0(i64 8, ptr %6) #12
  call void @llvm.lifetime.end.p0(i64 8, ptr %5) #12
  ret ptr %19
}