; Function Attrs: nounwind uwtable
define internal ptr @unicode_removesuffix(ptr noundef %0, ptr noundef %1) #0 {
  %3 = getelementptr i8, ptr %1, i64 8
  %.val = load ptr, ptr %3, align 8, !tbaa !187
  %4 = getelementptr i8, ptr %.val, i64 168
  %.val6 = load i64, ptr %4, align 8, !tbaa !188
  %5 = and i64 %.val6, 268435456
  %.not = icmp eq i64 %5, 0
  br i1 %.not, label %6, label %7

6:                                                ; preds = %2
  tail call void @_PyArg_BadArgument(ptr noundef nonnull @.str.254, ptr noundef nonnull @.str.297, ptr noundef nonnull @.str.121, ptr noundef nonnull %1) #41
  br label %unicode_removesuffix_impl.exit

7:                                                ; preds = %2
  %8 = tail call fastcc i32 @tailmatch(ptr noundef %0, ptr noundef nonnull readonly %1, i64 noundef 0, i64 noundef 9223372036854775807, i32 noundef 1)
  %.not.i = icmp eq i32 %8, 0
  br i1 %.not.i, label %14, label %9

9:                                                ; preds = %7
  %10 = getelementptr i8, ptr %0, i64 16
  %.val9.i = load i64, ptr %10, align 8, !tbaa !197
  %11 = getelementptr i8, ptr %1, i64 16
  %.val.i = load i64, ptr %11, align 8, !tbaa !197
  %12 = sub i64 %.val9.i, %.val.i
  %13 = tail call ptr @PyUnicode_Substring(ptr noundef %0, i64 noundef 0, i64 noundef %12)
  br label %unicode_removesuffix_impl.exit

14:                                               ; preds = %7
  %15 = tail call fastcc ptr @unicode_result_unchanged(ptr noundef %0)
  br label %unicode_removesuffix_impl.exit

unicode_removesuffix_impl.exit:                   ; preds = %14, %9, %6
  %.0 = phi ptr [ null, %6 ], [ %13, %9 ], [ %15, %14 ]
  ret ptr %.0
}